target datalayout = "e-m:e-p270:32:32-p271:32:32-p272:64:64-i64:64-i128:128-f80:128-n8:16:32:64-S128"
target triple = "x86_64-pc-linux-gnu"

%struct.slurm_step_id_msg = type { i64, i32, i32, i32 }
%struct.srun_step_missing_msg = type { ptr, %struct.slurm_step_id_msg }

@.str.2 = private unnamed_addr constant [22 x i8] c"slurm_protocol_pack.c\00", align 1
@__func__._unpack_srun_step_missing_msg = private unnamed_addr constant [30 x i8] c"_unpack_srun_step_missing_msg\00", align 1

; Function Attrs: nounwind uwtable
define internal i32 @_unpack_srun_step_missing_msg(ptr noundef %0, ptr noundef %1, i16 noundef zeroext %2) #0 {
  %4 = alloca i32, align 4
  %5 = alloca ptr, align 8
  %6 = alloca ptr, align 8
  %7 = alloca i16, align 2
  %8 = alloca ptr, align 8
  %9 = alloca i32, align 4
  %10 = alloca i32, align 4
  store ptr %0, ptr %5, align 8
  store ptr %1, ptr %6, align 8
  store i16 %2, ptr %7, align 2
  call void @llvm.lifetime.start.p0(i64 8, ptr %8) #6
  %11 = call ptr @slurm_xcalloc(i64 noundef 1, i64 noundef 32, i1 noundef zeroext true, i1 noundef zeroext false, ptr noundef @.str.2, i32 noundef 10451, ptr noundef @__func__._unpack_srun_step_missing_msg)
  store ptr %11, ptr %8, align 8
  %12 = load ptr, ptr %8, align 8
  %13 = load ptr, ptr %5, align 8
  store ptr %12, ptr %13, align 8
  %14 = load i16, ptr %7, align 2
  %15 = zext i16 %14 to i32
  %16 = icmp sge i32 %15, 10240
  br i1 %16, label %17, label %39

17:                                               ; preds = %3
  %18 = load ptr, ptr %8, align 8
  %19 = getelementptr inbounds nuw %struct.srun_step_missing_msg, ptr %18, i32 0, i32 1
  %20 = load ptr, ptr %6, align 8
  %21 = load i16, ptr %7, align 2
  %22 = call i32 @unpack_step_id_members(ptr noundef %19, ptr noundef %20, i16 noundef zeroext %21)
  %23 = icmp ne i32 %22, 0
  br i1 %23, label %24, label %25

24:                                               ; preds = %17
  br label %40

25:                                               ; preds = %17
  br label %26

26:                                               ; preds = %25
  call void @llvm.lifetime.start.p0(i64 4, ptr %9) #6
  %27 = load ptr, ptr %8, align 8
  %28 = getelementptr inbounds nuw %struct.srun_step_missing_msg, ptr %27, i32 0, i32 0
  %29 = load ptr, ptr %6, align 8
  %30 = call i32 @unpackstr_xmalloc_chooser(ptr noundef %28, ptr noundef %9, ptr noundef %29)
  %31 = icmp ne i32 %30, 0
  br i1 %31, label %32, label %33

32:                                               ; preds = %26
  store i32 2, ptr %10, align 4
  br label %34

33:                                               ; preds = %26
  store i32 0, ptr %10, align 4
  br label %34

34:                                               ; preds = %32, %33
  call void @llvm.lifetime.end.p0(i64 4, ptr %9) #6
  %35 = load i32, ptr %10, align 4
  switch i32 %35, label %43 [
    i32 0, label %36
    i32 2, label %40
  ]

36:                                               ; preds = %34
  br label %37

37:                                               ; preds = %36
  br label %38

38:                                               ; preds = %37
  br label %39

39:                                               ; preds = %38, %3
  store i32 0, ptr %4, align 4
  store i32 1, ptr %10, align 4
  br label %43

40:                                               ; preds = %34, %24
  %41 = load ptr, ptr %8, align 8
  call void @slurm_free_srun_step_missing_msg(ptr noundef %41)
  %42 = load ptr, ptr %5, align 8
  store ptr null, ptr %42, align 8
  store i32 -1, ptr %4, align 4
  store i32 1, ptr %10, align 4
  br label %43

43:                                               ; preds = %40, %39, %34
  call void @llvm.lifetime.end.p0(i64 8, ptr %8) #6
  %44 = load i32, ptr %4, align 4
  ret i32 %44
}