; Function Attrs: nounwind uwtable
define internal fastcc range(i32 -1, 1) i32 @_unpack_srun_step_missing_msg(ptr noundef writeonly captures(none) initializes((0, 8)) %0, ptr noundef %1, i16 noundef zeroext %2) unnamed_addr #0 {
  %4 = alloca i32, align 4
  %5 = tail call ptr @slurm_xcalloc(i64 noundef 1, i64 noundef 32, i1 noundef zeroext true, i1 noundef zeroext false, ptr noundef nonnull @.str.2, i32 noundef 10451, ptr noundef nonnull @__func__._unpack_srun_step_missing_msg) #7
  store ptr %5, ptr %0, align 8
  %6 = icmp ugt i16 %2, 10239
  br i1 %6, label %7, label %13

7:                                                ; preds = %3
  %8 = getelementptr inbounds nuw i8, ptr %5, i64 8
  %9 = tail call i32 @unpack_step_id_members(ptr noundef nonnull %8, ptr noundef %1, i16 noundef zeroext %2)
  %.not = icmp eq i32 %9, 0
  br i1 %.not, label %10, label %12

10:                                               ; preds = %7
  call void @llvm.lifetime.start.p0(i64 4, ptr nonnull %4) #7
  %11 = call i32 @unpackstr_xmalloc_chooser(ptr noundef nonnull %5, ptr noundef nonnull %4, ptr noundef %1) #7
  %.not12 = icmp eq i32 %11, 0
  call void @llvm.lifetime.end.p0(i64 4, ptr nonnull %4) #7
  br i1 %.not12, label %13, label %12

12:                                               ; preds = %10, %7
  call void @slurm_free_srun_step_missing_msg(ptr noundef nonnull %5) #7
  store ptr null, ptr %0, align 8
  br label %13

13:                                               ; preds = %10, %3, %12
  %.011 = phi i32 [ -1, %12 ], [ 0, %10 ], [ 0, %3 ]
  ret i32 %.011
}